; Function Attrs: mustprogress uwtable
define dso_local noundef zeroext i1 @_ZN3dap6writefERKSt10shared_ptrINS_6WriterEEPKcz(ptr nocapture noundef nonnull readonly align 8 dereferenceable(16) %0, ptr nocapture noundef readonly %1, ...) local_unnamed_addr #0 {
  %3 = alloca [2048 x i8], align 16
  %4 = alloca [1 x %struct.__va_list_tag], align 16
  call void @llvm.va_start(ptr nonnull %4)
  %5 = call i32 @vsnprintf(ptr noundef nonnull %3, i64 noundef 2048, ptr noundef %1, ptr noundef nonnull %4) #23
  call void @llvm.va_end(ptr nonnull %4)
  %6 = load ptr, ptr %0, align 8
  %7 = call i64 @strlen(ptr noundef nonnull dereferenceable(1) %3) #26
  %8 = load ptr, ptr %6, align 8
  %9 = getelementptr inbounds i8, ptr %8, i64 32
  %10 = load ptr, ptr %9, align 8
  %11 = call noundef zeroext i1 %10(ptr noundef nonnull align 8 dereferenceable(8) %6, ptr noundef nonnull %3, i64 noundef %7)
  ret i1 %11
}